; Function Attrs: nounwind uwtable
define noalias noundef ptr @Dch_ClassesStart(ptr noundef %0) local_unnamed_addr #0 {
  %calloc = tail call dereferenceable_or_null(104) ptr @calloc(i64 1, i64 104)
  store ptr %0, ptr %calloc, align 8, !tbaa !3
  %2 = getelementptr i8, ptr %0, i64 32
  %.val = load ptr, ptr %2, align 8, !tbaa !14
  %3 = getelementptr i8, ptr %.val, i64 4
  %.val.val = load i32, ptr %3, align 4, !tbaa !24
  %4 = sext i32 %.val.val to i64
  %5 = tail call noalias ptr @calloc(i64 noundef %4, i64 noundef 8) #17
  %6 = getelementptr inbounds nuw i8, ptr %calloc, i64 8
  store ptr %5, ptr %6, align 8, !tbaa !26
  %7 = tail call noalias ptr @calloc(i64 noundef %4, i64 noundef 4) #17
  %8 = getelementptr inbounds nuw i8, ptr %calloc, i64 16
  store ptr %7, ptr %8, align 8, !tbaa !27
  %9 = tail call noalias dereferenceable_or_null(16) ptr @malloc(i64 noundef 16) #18
  %10 = getelementptr inbounds nuw i8, ptr %9, i64 4
  store i32 0, ptr %10, align 4, !tbaa !24
  store i32 100, ptr %9, align 8, !tbaa !28
  %11 = tail call noalias dereferenceable_or_null(800) ptr @malloc(i64 noundef 800) #18
  %12 = getelementptr inbounds nuw i8, ptr %9, i64 8
  store ptr %11, ptr %12, align 8, !tbaa !29
  %13 = getelementptr inbounds nuw i8, ptr %calloc, i64 56
  store ptr %9, ptr %13, align 8, !tbaa !30
  %14 = tail call noalias dereferenceable_or_null(16) ptr @malloc(i64 noundef 16) #18
  %15 = getelementptr inbounds nuw i8, ptr %14, i64 4
  store i32 0, ptr %15, align 4, !tbaa !24
  store i32 100, ptr %14, align 8, !tbaa !28
  %16 = tail call noalias dereferenceable_or_null(800) ptr @malloc(i64 noundef 800) #18
  %17 = getelementptr inbounds nuw i8, ptr %14, i64 8
  store ptr %16, ptr %17, align 8, !tbaa !29
  %18 = getelementptr inbounds nuw i8, ptr %calloc, i64 64
  store ptr %14, ptr %18, align 8, !tbaa !31
  tail call void @Aig_ManReprStart(ptr noundef %0, i32 noundef %.val.val) #19
  ret ptr %calloc
}